; ModuleID = '22/622.c'
source_filename = "22/622.c"
target datalayout = "e-m:e-p270:32:32-p271:32:32-p272:64:64-i64:64-f80:128-n8:16:32:64-S128"
target triple = "x86_64-pc-linux-gnu"

@.str = private unnamed_addr constant [3 x i8] c"%d\00", align 1
@.str.1 = private unnamed_addr constant [3 x i8] c"No\00", align 1

; Function Attrs: noinline nounwind uwtable
define dso_local i32 @main() #0 {
  %1 = alloca i32, align 4
  %2 = alloca i32, align 4
  %3 = alloca i32, align 4
  %4 = alloca [300 x i32], align 16
  %5 = alloca i32, align 4
  %6 = alloca i32, align 4
  %7 = alloca i8, align 1
  store i32 0, i32* %1, align 4
  store i32 1, i32* %5, align 4
  %8 = getelementptr inbounds [300 x i32], [300 x i32]* %4, i64 0, i64 1
  %9 = call i32 (i8*, ...) @__isoc99_scanf(i8* getelementptr inbounds ([3 x i8], [3 x i8]* @.str, i64 0, i64 0), i32* %8)
  br label %10

10:                                               ; preds = %15, %0
  %11 = call i32 @getchar()
  %12 = trunc i32 %11 to i8
  store i8 %12, i8* %7, align 1
  %13 = sext i8 %12 to i32
  %14 = icmp ne i32 %13, 10
  br i1 %14, label %15, label %22

15:                                               ; preds = %10
  %16 = load i32, i32* %5, align 4
  %17 = add nsw i32 %16, 1
  store i32 %17, i32* %5, align 4
  %18 = load i32, i32* %5, align 4
  %19 = sext i32 %18 to i64
  %20 = getelementptr inbounds [300 x i32], [300 x i32]* %4, i64 0, i64 %19
  %21 = call i32 (i8*, ...) @__isoc99_scanf(i8* getelementptr inbounds ([3 x i8], [3 x i8]* @.str, i64 0, i64 0), i32* %20)
  br label %10

22:                                               ; preds = %10
  %23 = load i32, i32* %5, align 4
  %24 = icmp eq i32 %23, 1
  br i1 %24, label %25, label %27

25:                                               ; preds = %22
  %26 = call i32 (i8*, ...) @printf(i8* getelementptr inbounds ([3 x i8], [3 x i8]* @.str.1, i64 0, i64 0))
  br label %105

27:                                               ; preds = %22
  store i32 1, i32* %2, align 4
  br label %28

28:                                               ; preds = %71, %27
  %29 = load i32, i32* %2, align 4
  %30 = load i32, i32* %5, align 4
  %31 = icmp slt i32 %29, %30
  br i1 %31, label %32, label %74

32:                                               ; preds = %28
  store i32 1, i32* %3, align 4
  br label %33

33:                                               ; preds = %67, %32
  %34 = load i32, i32* %3, align 4
  %35 = load i32, i32* %5, align 4
  %36 = icmp slt i32 %34, %35
  br i1 %36, label %37, label %70

37:                                               ; preds = %33
  %38 = load i32, i32* %3, align 4
  %39 = sext i32 %38 to i64
  %40 = getelementptr inbounds [300 x i32], [300 x i32]* %4, i64 0, i64 %39
  %41 = load i32, i32* %40, align 4
  %42 = load i32, i32* %3, align 4
  %43 = add nsw i32 %42, 1
  %44 = sext i32 %43 to i64
  %45 = getelementptr inbounds [300 x i32], [300 x i32]* %4, i64 0, i64 %44
  %46 = load i32, i32* %45, align 4
  %47 = icmp slt i32 %41, %46
  br i1 %47, label %48, label %66

48:                                               ; preds = %37
  %49 = load i32, i32* %3, align 4
  %50 = sext i32 %49 to i64
  %51 = getelementptr inbounds [300 x i32], [300 x i32]* %4, i64 0, i64 %50
  %52 = load i32, i32* %51, align 4
  store i32 %52, i32* %6, align 4
  %53 = load i32, i32* %3, align 4
  %54 = add nsw i32 %53, 1
  %55 = sext i32 %54 to i64
  %56 = getelementptr inbounds [300 x i32], [300 x i32]* %4, i64 0, i64 %55
  %57 = load i32, i32* %56, align 4
  %58 = load i32, i32* %3, align 4
  %59 = sext i32 %58 to i64
  %60 = getelementptr inbounds [300 x i32], [300 x i32]* %4, i64 0, i64 %59
  store i32 %57, i32* %60, align 4
  %61 = load i32, i32* %6, align 4
  %62 = load i32, i32* %3, align 4
  %63 = add nsw i32 %62, 1
  %64 = sext i32 %63 to i64
  %65 = getelementptr inbounds [300 x i32], [300 x i32]* %4, i64 0, i64 %64
  store i32 %61, i32* %65, align 4
  br label %66

66:                                               ; preds = %48, %37
  br label %67

67:                                               ; preds = %66
  %68 = load i32, i32* %3, align 4
  %69 = add nsw i32 %68, 1
  store i32 %69, i32* %3, align 4
  br label %33

70:                                               ; preds = %33
  br label %71

71:                                               ; preds = %70
  %72 = load i32, i32* %2, align 4
  %73 = add nsw i32 %72, 1
  store i32 %73, i32* %2, align 4
  br label %28

74:                                               ; preds = %28
  store i32 2, i32* %2, align 4
  br label %75

75:                                               ; preds = %89, %74
  %76 = load i32, i32* %2, align 4
  %77 = load i32, i32* %5, align 4
  %78 = icmp sle i32 %76, %77
  br i1 %78, label %79, label %92

79:                                               ; preds = %75
  %80 = load i32, i32* %2, align 4
  %81 = sext i32 %80 to i64
  %82 = getelementptr inbounds [300 x i32], [300 x i32]* %4, i64 0, i64 %81
  %83 = load i32, i32* %82, align 4
  %84 = getelementptr inbounds [300 x i32], [300 x i32]* %4, i64 0, i64 1
  %85 = load i32, i32* %84, align 4
  %86 = icmp slt i32 %83, %85
  br i1 %86, label %87, label %88

87:                                               ; preds = %79
  br label %92

88:                                               ; preds = %79
  br label %89

89:                                               ; preds = %88
  %90 = load i32, i32* %2, align 4
  %91 = add nsw i32 %90, 1
  store i32 %91, i32* %2, align 4
  br label %75

92:                                               ; preds = %87, %75
  %93 = load i32, i32* %2, align 4
  %94 = load i32, i32* %5, align 4
  %95 = icmp sle i32 %93, %94
  br i1 %95, label %96, label %102

96:                                               ; preds = %92
  %97 = load i32, i32* %2, align 4
  %98 = sext i32 %97 to i64
  %99 = getelementptr inbounds [300 x i32], [300 x i32]* %4, i64 0, i64 %98
  %100 = load i32, i32* %99, align 4
  %101 = call i32 (i8*, ...) @printf(i8* getelementptr inbounds ([3 x i8], [3 x i8]* @.str, i64 0, i64 0), i32 %100)
  br label %104

102:                                              ; preds = %92
  %103 = call i32 (i8*, ...) @printf(i8* getelementptr inbounds ([3 x i8], [3 x i8]* @.str.1, i64 0, i64 0))
  br label %104

104:                                              ; preds = %102, %96
  br label %105

105:                                              ; preds = %104, %25
  %106 = load i32, i32* %1, align 4
  ret i32 %106
}

declare dso_local i32 @__isoc99_scanf(i8*, ...) #1

declare dso_local i32 @getchar() #1

declare dso_local i32 @printf(i8*, ...) #1


!llvm.module.flags = !{!0}
!llvm.ident = !{!1}

!0 = !{i32 1, !"wchar_size", i32 4}
!1 = !{!"clang version 10.0.0-4ubuntu1 "}
